; Function Attrs: nounwind uwtable
define internal noundef nonnull ptr @test_PyOS_mystrnicmp(ptr readnone captures(none) %0, ptr readnone captures(none) %1) #0 {
  %3 = tail call i32 @PyOS_mystrnicmp(ptr noundef nonnull @.str.3, ptr noundef nonnull @.str.3, i64 noundef 0) #3
  %4 = icmp eq i32 %3, 0
  br i1 %4, label %6, label %5

5:                                                ; preds = %2
  tail call void @__assert_fail(ptr noundef nonnull @.str.4, ptr noundef nonnull @.str.5, i32 noundef 7, ptr noundef nonnull @__PRETTY_FUNCTION__.test_PyOS_mystrnicmp) #4
  unreachable

6:                                                ; preds = %2
  %7 = tail call i32 @PyOS_mystrnicmp(ptr noundef nonnull @.str.3, ptr noundef nonnull @.str.3, i64 noundef 1) #3
  %8 = icmp eq i32 %7, 0
  br i1 %8, label %10, label %9

9:                                                ; preds = %6
  tail call void @__assert_fail(ptr noundef nonnull @.str.6, ptr noundef nonnull @.str.5, i32 noundef 8, ptr noundef nonnull @__PRETTY_FUNCTION__.test_PyOS_mystrnicmp) #4
  unreachable

10:                                               ; preds = %6
  %11 = tail call i32 @PyOS_mystrnicmp(ptr noundef nonnull @.str.7, ptr noundef nonnull @.str.8, i64 noundef 3) #3
  %12 = icmp eq i32 %11, 0
  br i1 %12, label %14, label %13

13:                                               ; preds = %10
  tail call void @__assert_fail(ptr noundef nonnull @.str.9, ptr noundef nonnull @.str.5, i32 noundef 10, ptr noundef nonnull @__PRETTY_FUNCTION__.test_PyOS_mystrnicmp) #4
  unreachable

14:                                               ; preds = %10
  %15 = tail call i32 @PyOS_mystrnicmp(ptr noundef nonnull @.str.8, ptr noundef nonnull @.str.7, i64 noundef 3) #3
  %16 = icmp eq i32 %15, 0
  br i1 %16, label %18, label %17

17:                                               ; preds = %14
  tail call void @__assert_fail(ptr noundef nonnull @.str.10, ptr noundef nonnull @.str.5, i32 noundef 11, ptr noundef nonnull @__PRETTY_FUNCTION__.test_PyOS_mystrnicmp) #4
  unreachable

18:                                               ; preds = %14
  %19 = tail call i32 @PyOS_mystrnicmp(ptr noundef nonnull @.str.11, ptr noundef nonnull @.str.7, i64 noundef 3) #3
  %20 = icmp eq i32 %19, 0
  br i1 %20, label %22, label %21

21:                                               ; preds = %18
  tail call void @__assert_fail(ptr noundef nonnull @.str.12, ptr noundef nonnull @.str.5, i32 noundef 12, ptr noundef nonnull @__PRETTY_FUNCTION__.test_PyOS_mystrnicmp) #4
  unreachable

22:                                               ; preds = %18
  %23 = tail call i32 @PyOS_mystrnicmp(ptr noundef nonnull @.str.7, ptr noundef nonnull @.str.7, i64 noundef 6) #3
  %24 = icmp eq i32 %23, 0
  br i1 %24, label %26, label %25

25:                                               ; preds = %22
  tail call void @__assert_fail(ptr noundef nonnull @.str.13, ptr noundef nonnull @.str.5, i32 noundef 14, ptr noundef nonnull @__PRETTY_FUNCTION__.test_PyOS_mystrnicmp) #4
  unreachable

26:                                               ; preds = %22
  %27 = tail call i32 @PyOS_mystrnicmp(ptr noundef nonnull @.str.14, ptr noundef nonnull @.str.7, i64 noundef 6) #3
  %28 = icmp eq i32 %27, 0
  br i1 %28, label %30, label %29

29:                                               ; preds = %26
  tail call void @__assert_fail(ptr noundef nonnull @.str.15, ptr noundef nonnull @.str.5, i32 noundef 15, ptr noundef nonnull @__PRETTY_FUNCTION__.test_PyOS_mystrnicmp) #4
  unreachable

30:                                               ; preds = %26
  %31 = tail call i32 @PyOS_mystrnicmp(ptr noundef nonnull @.str.16, ptr noundef nonnull @.str.7, i64 noundef 6) #3
  %32 = icmp eq i32 %31, 0
  br i1 %32, label %34, label %33

33:                                               ; preds = %30
  tail call void @__assert_fail(ptr noundef nonnull @.str.17, ptr noundef nonnull @.str.5, i32 noundef 16, ptr noundef nonnull @__PRETTY_FUNCTION__.test_PyOS_mystrnicmp) #4
  unreachable

34:                                               ; preds = %30
  %35 = tail call i32 @PyOS_mystrnicmp(ptr noundef nonnull @.str.7, ptr noundef nonnull @.str.7, i64 noundef 10) #3
  %36 = icmp eq i32 %35, 0
  br i1 %36, label %38, label %37

37:                                               ; preds = %34
  tail call void @__assert_fail(ptr noundef nonnull @.str.18, ptr noundef nonnull @.str.5, i32 noundef 17, ptr noundef nonnull @__PRETTY_FUNCTION__.test_PyOS_mystrnicmp) #4
  unreachable

38:                                               ; preds = %34
  %39 = tail call i32 @PyOS_mystrnicmp(ptr noundef nonnull @.str.19, ptr noundef nonnull @.str.7, i64 noundef 6) #3
  %40 = icmp eq i32 %39, 3
  br i1 %40, label %42, label %41

41:                                               ; preds = %38
  tail call void @__assert_fail(ptr noundef nonnull @.str.20, ptr noundef nonnull @.str.5, i32 noundef 19, ptr noundef nonnull @__PRETTY_FUNCTION__.test_PyOS_mystrnicmp) #4
  unreachable

42:                                               ; preds = %38
  %43 = tail call i32 @PyOS_mystrnicmp(ptr noundef nonnull @.str.7, ptr noundef nonnull @.str.19, i64 noundef 6) #3
  %44 = icmp eq i32 %43, -3
  br i1 %44, label %46, label %45

45:                                               ; preds = %42
  tail call void @__assert_fail(ptr noundef nonnull @.str.21, ptr noundef nonnull @.str.5, i32 noundef 20, ptr noundef nonnull @__PRETTY_FUNCTION__.test_PyOS_mystrnicmp) #4
  unreachable

46:                                               ; preds = %42
  %47 = tail call i32 @PyOS_mystrnicmp(ptr noundef nonnull @.str.7, ptr noundef nonnull @.str.22, i64 noundef 6) #3
  %48 = icmp eq i32 %47, 101
  br i1 %48, label %50, label %49

49:                                               ; preds = %46
  tail call void @__assert_fail(ptr noundef nonnull @.str.23, ptr noundef nonnull @.str.5, i32 noundef 21, ptr noundef nonnull @__PRETTY_FUNCTION__.test_PyOS_mystrnicmp) #4
  unreachable

50:                                               ; preds = %46
  %51 = tail call i32 @PyOS_mystrnicmp(ptr noundef nonnull @.str.24, ptr noundef nonnull @.str.25, i64 noundef 8) #3
  %52 = icmp eq i32 %51, 0
  br i1 %52, label %54, label %53

53:                                               ; preds = %50
  tail call void @__assert_fail(ptr noundef nonnull @.str.26, ptr noundef nonnull @.str.5, i32 noundef 24, ptr noundef nonnull @__PRETTY_FUNCTION__.test_PyOS_mystrnicmp) #4
  unreachable

54:                                               ; preds = %50
  ret ptr @_Py_NoneStruct
}